target datalayout = "e-m:e-p270:32:32-p271:32:32-p272:64:64-i64:64-i128:128-f80:128-n8:16:32:64-S128"
target triple = "x86_64-pc-linux-gnu"

%class.LogTagSet = type { ptr, i64, [5 x i32], [4 x i8], %class.LogOutputList, %class.LogDecorators, ptr }
%class.LogOutputList = type <{ [6 x ptr], i32, [4 x i8] }>
%class.LogDecorators = type { i32 }
%class.Array.11 = type <{ i32, [1 x i8], [3 x i8] }>
%class.anon.52 = type { i8 }

@.str.144 = private unnamed_addr constant [38 x i8] c"length() is too small for a type_path\00", align 1
@.str.145 = private unnamed_addr constant [26 x i8] c"type_path: path_length=%d\00", align 1
@.str.146 = private unnamed_addr constant [46 x i8] c"length() is too small for path entry %d of %d\00", align 1
@.str.147 = private unnamed_addr constant [63 x i8] c"type_path: path[%d]: type_path_kind=%d, type_argument_index=%d\00", align 1
@.str.148 = private unnamed_addr constant [30 x i8] c"inconsistent type_path values\00", align 1
@_ZN16LogTagSetMappingILN6LogTag4typeE125ELS1_16ELS1_4ELS1_0ELS1_0ELS1_0EE7_tagsetE = linkonce_odr hidden global %class.LogTagSet zeroinitializer, comdat, align 8

; Function Attrs: mustprogress nounwind uwtable
define linkonce_odr hidden noundef i64 @_ZZN5ArrayIhE20base_offset_in_bytesEvENKUlvE_clEv(ptr noundef nonnull align 1 dereferenceable(1) %0) #1 comdat align 2 {
  %2 = alloca ptr, align 8
  %3 = alloca [8 x i8], align 16
  %4 = alloca ptr, align 8
  %5 = alloca ptr, align 8
  store ptr %0, ptr %2, align 8
  %6 = getelementptr inbounds [8 x i8], ptr %3, i64 0, i64 0
  store ptr %6, ptr %4, align 8
  %7 = load ptr, ptr %4, align 8
  %8 = getelementptr inbounds %class.Array.11, ptr %7, i32 0, i32 1
  store ptr %8, ptr %5, align 8
  %9 = load ptr, ptr %5, align 8
  %10 = getelementptr inbounds [8 x i8], ptr %3, i64 0, i64 0
  %11 = ptrtoint ptr %9 to i64
  %12 = ptrtoint ptr %10 to i64
  %13 = sub i64 %11, %12
  ret i64 %13
}

; Function Attrs: mustprogress nounwind uwtable
define linkonce_odr hidden noundef i32 @_ZN5ArrayIhE20base_offset_in_bytesEv() #1 comdat align 2 {
  %1 = alloca %class.anon.52, align 1
  %2 = call noundef i64 @_ZZN5ArrayIhE20base_offset_in_bytesEvENKUlvE_clEv(ptr noundef nonnull align 1 dereferenceable(1) %1)
  %3 = trunc i64 %2 to i32
  ret i32 %3
}

; Function Attrs: mustprogress nounwind uwtable
define linkonce_odr hidden noundef zeroext i1 @_ZNK13LogOutputList8is_levelEN8LogLevel4typeE(ptr noundef nonnull align 8 dereferenceable(52) %0, i32 noundef %1) #1 comdat align 2 {
  %3 = alloca ptr, align 8
  %4 = alloca i32, align 4
  store ptr %0, ptr %3, align 8
  store i32 %1, ptr %4, align 4
  %5 = load ptr, ptr %3, align 8
  %6 = getelementptr inbounds %class.LogOutputList, ptr %5, i32 0, i32 0
  %7 = load i32, ptr %4, align 4
  %8 = zext i32 %7 to i64
  %9 = getelementptr inbounds [6 x ptr], ptr %6, i64 0, i64 %8
  %10 = load volatile ptr, ptr %9, align 8
  %11 = icmp ne ptr %10, null
  ret i1 %11
}

; Function Attrs: mustprogress nounwind uwtable
define linkonce_odr hidden noundef ptr @_ZNK5ArrayIhE4dataEv(ptr noundef nonnull align 4 dereferenceable(5) %0) #1 comdat align 2 {
  %2 = alloca ptr, align 8
  store ptr %0, ptr %2, align 8
  %3 = load ptr, ptr %2, align 8
  %4 = call noundef i32 @_ZN5ArrayIhE20base_offset_in_bytesEv()
  %5 = sext i32 %4 to i64
  %6 = getelementptr inbounds i8, ptr %3, i64 %5
  ret ptr %6
}

; Function Attrs: mustprogress nounwind uwtable
define linkonce_odr hidden noundef zeroext i1 @_ZNK9LogTagSet8is_levelEN8LogLevel4typeE(ptr noundef nonnull align 8 dereferenceable(112) %0, i32 noundef %1) #1 comdat align 2 {
  %3 = alloca ptr, align 8
  %4 = alloca i32, align 4
  store ptr %0, ptr %3, align 8
  store i32 %1, ptr %4, align 4
  %5 = load ptr, ptr %3, align 8
  %6 = getelementptr inbounds %class.LogTagSet, ptr %5, i32 0, i32 4
  %7 = load i32, ptr %4, align 4
  %8 = call noundef zeroext i1 @_ZNK13LogOutputList8is_levelEN8LogLevel4typeE(ptr noundef nonnull align 8 dereferenceable(52) %6, i32 noundef %7)
  ret i1 %8
}

; Function Attrs: mustprogress nounwind uwtable
define linkonce_odr hidden noundef nonnull align 8 dereferenceable(112) ptr @_ZN16LogTagSetMappingILN6LogTag4typeE125ELS1_16ELS1_4ELS1_0ELS1_0ELS1_0EE6tagsetEv() #1 comdat align 2 {
  ret ptr @_ZN16LogTagSetMappingILN6LogTag4typeE125ELS1_16ELS1_4ELS1_0ELS1_0ELS1_0EE7_tagsetE
}

; Function Attrs: mustprogress nounwind uwtable
define linkonce_odr hidden noundef zeroext i8 @_ZNK5ArrayIhE2atEi(ptr noundef nonnull align 4 dereferenceable(5) %0, i32 noundef %1) #1 comdat align 2 {
  %3 = alloca ptr, align 8
  %4 = alloca i32, align 4
  store ptr %0, ptr %3, align 8
  store i32 %1, ptr %4, align 4
  %5 = load ptr, ptr %3, align 8
  %6 = call noundef ptr @_ZNK5ArrayIhE4dataEv(ptr noundef nonnull align 4 dereferenceable(5) %5)
  %7 = load i32, ptr %4, align 4
  %8 = sext i32 %7 to i64
  %9 = getelementptr inbounds i8, ptr %6, i64 %8
  %10 = load i8, ptr %9, align 1
  ret i8 %10
}

; Function Attrs: mustprogress nounwind uwtable
define linkonce_odr hidden noundef zeroext i1 @_ZN7LogImplILN6LogTag4typeE125ELS1_16ELS1_4ELS1_0ELS1_0ELS1_0EE8is_levelEN8LogLevel4typeE(i32 noundef %0) #1 comdat align 2 {
  %2 = alloca i32, align 4
  store i32 %0, ptr %2, align 4
  %3 = call noundef nonnull align 8 dereferenceable(112) ptr @_ZN16LogTagSetMappingILN6LogTag4typeE125ELS1_16ELS1_4ELS1_0ELS1_0ELS1_0EE6tagsetEv()
  %4 = load i32, ptr %2, align 4
  %5 = call noundef zeroext i1 @_ZNK9LogTagSet8is_levelEN8LogLevel4typeE(ptr noundef nonnull align 8 dereferenceable(112) %3, i32 noundef %4)
  ret i1 %5
}

; Function Attrs: mustprogress nounwind uwtable
define linkonce_odr hidden noundef i32 @_ZNK5ArrayIhE6lengthEv(ptr noundef nonnull align 4 dereferenceable(5) %0) #1 comdat align 2 {
  %2 = alloca ptr, align 8
  store ptr %0, ptr %2, align 8
  %3 = load ptr, ptr %2, align 8
  %4 = getelementptr inbounds %class.Array.11, ptr %3, i32 0, i32 0
  %5 = load i32, ptr %4, align 4
  ret i32 %5
}

; Function Attrs: mustprogress nounwind uwtable
define hidden noundef zeroext i1 @_ZN18VM_RedefineClasses30skip_type_annotation_type_pathEP5ArrayIhERi(ptr noundef nonnull align 8 dereferenceable(192) %0, ptr noundef %1, ptr noundef nonnull align 4 dereferenceable(4) %2) #1 align 2 {
  %4 = alloca i1, align 1
  %5 = alloca ptr, align 8
  %6 = alloca ptr, align 8
  %7 = alloca ptr, align 8
  %8 = alloca i8, align 1
  %9 = alloca i32, align 4
  %10 = alloca i8, align 1
  %11 = alloca i8, align 1
  store ptr %0, ptr %5, align 8
  store ptr %1, ptr %6, align 8
  store ptr %2, ptr %7, align 8
  %12 = load ptr, ptr %7, align 8
  %13 = load i32, ptr %12, align 4
  %14 = add nsw i32 %13, 1
  %15 = load ptr, ptr %6, align 8
  %16 = call noundef i32 @_ZNK5ArrayIhE6lengthEv(ptr noundef nonnull align 4 dereferenceable(5) %15)
  %17 = icmp sgt i32 %14, %16
  br i1 %17, label %18, label %23

18:                                               ; preds = %3
  %19 = call noundef zeroext i1 @_ZN7LogImplILN6LogTag4typeE125ELS1_16ELS1_4ELS1_0ELS1_0ELS1_0EE8is_levelEN8LogLevel4typeE(i32 noundef 2)
  br i1 %19, label %21, label %20

20:                                               ; preds = %18
  br label %22

21:                                               ; preds = %18
  call void (ptr, ...) @_ZN7LogImplILN6LogTag4typeE125ELS1_16ELS1_4ELS1_0ELS1_0ELS1_0EE5writeILN8LogLevel4typeE2EEEvPKcz(ptr noundef @.str.144)
  br label %22

22:                                               ; preds = %21, %20
  store i1 false, ptr %4, align 1
  br label %103

23:                                               ; preds = %3
  %24 = load ptr, ptr %6, align 8
  %25 = load ptr, ptr %7, align 8
  %26 = load i32, ptr %25, align 4
  %27 = call noundef zeroext i8 @_ZNK5ArrayIhE2atEi(ptr noundef nonnull align 4 dereferenceable(5) %24, i32 noundef %26)
  store i8 %27, ptr %8, align 1
  %28 = load ptr, ptr %7, align 8
  %29 = load i32, ptr %28, align 4
  %30 = add nsw i32 %29, 1
  store i32 %30, ptr %28, align 4
  %31 = call noundef zeroext i1 @_ZN7LogImplILN6LogTag4typeE125ELS1_16ELS1_4ELS1_0ELS1_0ELS1_0EE8is_levelEN8LogLevel4typeE(i32 noundef 2)
  br i1 %31, label %33, label %32

32:                                               ; preds = %23
  br label %36

33:                                               ; preds = %23
  %34 = load i8, ptr %8, align 1
  %35 = zext i8 %34 to i32
  call void (ptr, ...) @_ZN7LogImplILN6LogTag4typeE125ELS1_16ELS1_4ELS1_0ELS1_0ELS1_0EE5writeILN8LogLevel4typeE2EEEvPKcz(ptr noundef @.str.145, i32 noundef %35)
  br label %36

36:                                               ; preds = %33, %32
  store i32 0, ptr %9, align 4
  br label %37

37:                                               ; preds = %99, %36
  %38 = load i32, ptr %9, align 4
  %39 = load i8, ptr %8, align 1
  %40 = zext i8 %39 to i32
  %41 = icmp slt i32 %38, %40
  br i1 %41, label %42, label %102

42:                                               ; preds = %37
  %43 = load ptr, ptr %7, align 8
  %44 = load i32, ptr %43, align 4
  %45 = add nsw i32 %44, 1
  %46 = add nsw i32 %45, 1
  %47 = load ptr, ptr %6, align 8
  %48 = call noundef i32 @_ZNK5ArrayIhE6lengthEv(ptr noundef nonnull align 4 dereferenceable(5) %47)
  %49 = icmp sgt i32 %46, %48
  br i1 %49, label %50, label %58

50:                                               ; preds = %42
  %51 = call noundef zeroext i1 @_ZN7LogImplILN6LogTag4typeE125ELS1_16ELS1_4ELS1_0ELS1_0ELS1_0EE8is_levelEN8LogLevel4typeE(i32 noundef 2)
  br i1 %51, label %53, label %52

52:                                               ; preds = %50
  br label %57

53:                                               ; preds = %50
  %54 = load i32, ptr %9, align 4
  %55 = load i8, ptr %8, align 1
  %56 = zext i8 %55 to i32
  call void (ptr, ...) @_ZN7LogImplILN6LogTag4typeE125ELS1_16ELS1_4ELS1_0ELS1_0ELS1_0EE5writeILN8LogLevel4typeE2EEEvPKcz(ptr noundef @.str.146, i32 noundef %54, i32 noundef %56)
  br label %57

57:                                               ; preds = %53, %52
  store i1 false, ptr %4, align 1
  br label %103

58:                                               ; preds = %42
  %59 = load ptr, ptr %6, align 8
  %60 = load ptr, ptr %7, align 8
  %61 = load i32, ptr %60, align 4
  %62 = call noundef zeroext i8 @_ZNK5ArrayIhE2atEi(ptr noundef nonnull align 4 dereferenceable(5) %59, i32 noundef %61)
  store i8 %62, ptr %10, align 1
  %63 = load ptr, ptr %7, align 8
  %64 = load i32, ptr %63, align 4
  %65 = add nsw i32 %64, 1
  store i32 %65, ptr %63, align 4
  %66 = load ptr, ptr %6, align 8
  %67 = load ptr, ptr %7, align 8
  %68 = load i32, ptr %67, align 4
  %69 = call noundef zeroext i8 @_ZNK5ArrayIhE2atEi(ptr noundef nonnull align 4 dereferenceable(5) %66, i32 noundef %68)
  store i8 %69, ptr %11, align 1
  %70 = load ptr, ptr %7, align 8
  %71 = load i32, ptr %70, align 4
  %72 = add nsw i32 %71, 1
  store i32 %72, ptr %70, align 4
  %73 = call noundef zeroext i1 @_ZN7LogImplILN6LogTag4typeE125ELS1_16ELS1_4ELS1_0ELS1_0ELS1_0EE8is_levelEN8LogLevel4typeE(i32 noundef 2)
  br i1 %73, label %75, label %74

74:                                               ; preds = %58
  br label %81

75:                                               ; preds = %58
  %76 = load i32, ptr %9, align 4
  %77 = load i8, ptr %10, align 1
  %78 = zext i8 %77 to i32
  %79 = load i8, ptr %11, align 1
  %80 = zext i8 %79 to i32
  call void (ptr, ...) @_ZN7LogImplILN6LogTag4typeE125ELS1_16ELS1_4ELS1_0ELS1_0ELS1_0EE5writeILN8LogLevel4typeE2EEEvPKcz(ptr noundef @.str.147, i32 noundef %76, i32 noundef %78, i32 noundef %80)
  br label %81

81:                                               ; preds = %75, %74
  %82 = load i8, ptr %10, align 1
  %83 = zext i8 %82 to i32
  %84 = icmp sgt i32 %83, 3
  br i1 %84, label %93, label %85

85:                                               ; preds = %81
  %86 = load i8, ptr %10, align 1
  %87 = zext i8 %86 to i32
  %88 = icmp ne i32 %87, 3
  br i1 %88, label %89, label %98

89:                                               ; preds = %85
  %90 = load i8, ptr %11, align 1
  %91 = zext i8 %90 to i32
  %92 = icmp ne i32 %91, 0
  br i1 %92, label %93, label %98

93:                                               ; preds = %89, %81
  %94 = call noundef zeroext i1 @_ZN7LogImplILN6LogTag4typeE125ELS1_16ELS1_4ELS1_0ELS1_0ELS1_0EE8is_levelEN8LogLevel4typeE(i32 noundef 2)
  br i1 %94, label %96, label %95

95:                                               ; preds = %93
  br label %97

96:                                               ; preds = %93
  call void (ptr, ...) @_ZN7LogImplILN6LogTag4typeE125ELS1_16ELS1_4ELS1_0ELS1_0ELS1_0EE5writeILN8LogLevel4typeE2EEEvPKcz(ptr noundef @.str.148)
  br label %97

97:                                               ; preds = %96, %95
  store i1 false, ptr %4, align 1
  br label %103

98:                                               ; preds = %89, %85
  br label %99

99:                                               ; preds = %98
  %100 = load i32, ptr %9, align 4
  %101 = add nsw i32 %100, 1
  store i32 %101, ptr %9, align 4
  br label %37, !llvm.loop !52

102:                                              ; preds = %37
  store i1 true, ptr %4, align 1
  br label %103

103:                                              ; preds = %102, %97, %57, %22
  %104 = load i1, ptr %4, align 1
  ret i1 %104
}