; Function Attrs: mustprogress nounwind uwtable
define hidden noundef zeroext i1 @_ZN18VM_RedefineClasses30skip_type_annotation_type_pathEP5ArrayIhERi(ptr nocapture nonnull readnone align 8 %0, ptr nocapture noundef readonly %1, ptr nocapture noundef nonnull align 4 dereferenceable(4) %2) local_unnamed_addr #0 align 2 {
  %4 = load i32, ptr %2, align 4
  %5 = load i32, ptr %1, align 4
  %.not = icmp slt i32 %4, %5
  br i1 %.not, label %9, label %6

6:                                                ; preds = %3
  %7 = load volatile ptr, ptr getelementptr inbounds (i8, ptr @_ZN16LogTagSetMappingILN6LogTag4typeE125ELS1_16ELS1_4ELS1_0ELS1_0ELS1_0EE7_tagsetE, i64 56), align 8
  %.not30 = icmp eq ptr %7, null
  br i1 %.not30, label %.loopexit, label %8

8:                                                ; preds = %6
  tail call void (ptr, ...) @_ZN7LogImplILN6LogTag4typeE125ELS1_16ELS1_4ELS1_0ELS1_0ELS1_0EE5writeILN8LogLevel4typeE2EEEvPKcz(ptr noundef nonnull @.str.144)
  br label %.loopexit

9:                                                ; preds = %3
  %10 = getelementptr inbounds i8, ptr %1, i64 4
  %11 = sext i32 %4 to i64
  %12 = getelementptr inbounds i8, ptr %10, i64 %11
  %13 = load i8, ptr %12, align 1
  %14 = add nsw i32 %4, 1
  store i32 %14, ptr %2, align 4
  %15 = load volatile ptr, ptr getelementptr inbounds (i8, ptr @_ZN16LogTagSetMappingILN6LogTag4typeE125ELS1_16ELS1_4ELS1_0ELS1_0ELS1_0EE7_tagsetE, i64 56), align 8
  %.not31 = icmp eq ptr %15, null
  %.pre = zext i8 %13 to i32
  br i1 %.not31, label %._crit_edge, label %16

16:                                               ; preds = %9
  tail call void (ptr, ...) @_ZN7LogImplILN6LogTag4typeE125ELS1_16ELS1_4ELS1_0ELS1_0ELS1_0EE5writeILN8LogLevel4typeE2EEEvPKcz(ptr noundef nonnull @.str.145, i32 noundef %.pre)
  br label %._crit_edge

._crit_edge:                                      ; preds = %9, %16
  %.not40 = icmp eq i8 %13, 0
  br i1 %.not40, label %.loopexit, label %.lr.ph

.lr.ph:                                           ; preds = %._crit_edge, %44
  %.02739 = phi i32 [ %45, %44 ], [ 0, %._crit_edge ]
  %17 = load i32, ptr %2, align 4
  %18 = add nsw i32 %17, 2
  %19 = load i32, ptr %1, align 4
  %20 = icmp sgt i32 %18, %19
  br i1 %20, label %21, label %24

21:                                               ; preds = %.lr.ph
  %22 = load volatile ptr, ptr getelementptr inbounds (i8, ptr @_ZN16LogTagSetMappingILN6LogTag4typeE125ELS1_16ELS1_4ELS1_0ELS1_0ELS1_0EE7_tagsetE, i64 56), align 8
  %.not34 = icmp eq ptr %22, null
  br i1 %.not34, label %.loopexit, label %23

23:                                               ; preds = %21
  tail call void (ptr, ...) @_ZN7LogImplILN6LogTag4typeE125ELS1_16ELS1_4ELS1_0ELS1_0ELS1_0EE5writeILN8LogLevel4typeE2EEEvPKcz(ptr noundef nonnull @.str.146, i32 noundef %.02739, i32 noundef %.pre)
  br label %.loopexit

24:                                               ; preds = %.lr.ph
  %25 = sext i32 %17 to i64
  %26 = getelementptr inbounds i8, ptr %10, i64 %25
  %27 = load i8, ptr %26, align 1
  %28 = add nsw i32 %17, 1
  store i32 %28, ptr %2, align 4
  %29 = sext i32 %28 to i64
  %30 = getelementptr inbounds i8, ptr %10, i64 %29
  %31 = load i8, ptr %30, align 1
  store i32 %18, ptr %2, align 4
  %32 = load volatile ptr, ptr getelementptr inbounds (i8, ptr @_ZN16LogTagSetMappingILN6LogTag4typeE125ELS1_16ELS1_4ELS1_0ELS1_0ELS1_0EE7_tagsetE, i64 56), align 8
  %.not32 = icmp eq ptr %32, null
  br i1 %.not32, label %36, label %33

33:                                               ; preds = %24
  %34 = zext i8 %27 to i32
  %35 = zext i8 %31 to i32
  tail call void (ptr, ...) @_ZN7LogImplILN6LogTag4typeE125ELS1_16ELS1_4ELS1_0ELS1_0ELS1_0EE5writeILN8LogLevel4typeE2EEEvPKcz(ptr noundef nonnull @.str.147, i32 noundef %.02739, i32 noundef %34, i32 noundef %35)
  br label %36

36:                                               ; preds = %24, %33
  %37 = icmp ugt i8 %27, 3
  br i1 %37, label %41, label %38

38:                                               ; preds = %36
  %39 = icmp ne i8 %27, 3
  %40 = icmp ne i8 %31, 0
  %or.cond = and i1 %39, %40
  br i1 %or.cond, label %41, label %44

41:                                               ; preds = %38, %36
  %42 = load volatile ptr, ptr getelementptr inbounds (i8, ptr @_ZN16LogTagSetMappingILN6LogTag4typeE125ELS1_16ELS1_4ELS1_0ELS1_0ELS1_0EE7_tagsetE, i64 56), align 8
  %.not33 = icmp eq ptr %42, null
  br i1 %.not33, label %.loopexit, label %43

43:                                               ; preds = %41
  tail call void (ptr, ...) @_ZN7LogImplILN6LogTag4typeE125ELS1_16ELS1_4ELS1_0ELS1_0ELS1_0EE5writeILN8LogLevel4typeE2EEEvPKcz(ptr noundef nonnull @.str.148)
  br label %.loopexit

44:                                               ; preds = %38
  %45 = add nuw nsw i32 %.02739, 1
  %exitcond.not = icmp eq i32 %45, %.pre
  br i1 %exitcond.not, label %.loopexit, label %.lr.ph, !llvm.loop !62

.loopexit:                                        ; preds = %44, %._crit_edge, %43, %41, %23, %21, %8, %6
  %.0 = phi i1 [ false, %6 ], [ false, %8 ], [ false, %21 ], [ false, %23 ], [ false, %41 ], [ false, %43 ], [ true, %._crit_edge ], [ true, %44 ]
  ret i1 %.0
}